target datalayout = "e-m:e-p270:32:32-p271:32:32-p272:64:64-i64:64-i128:128-f80:128-n8:16:32:64-S128"
target triple = "x86_64-pc-linux-gnu"

%struct.tvbuff = type { ptr, ptr, i8, i32, ptr, ptr, i32, i32, i32, i32 }

@.str = private unnamed_addr constant [29 x i8] c"%s:%u: failed assertion \22%s\22\00", align 1
@.str.1 = private unnamed_addr constant [14 x i8] c"epan/tvbuff.c\00", align 1
@.str.3 = private unnamed_addr constant [7 x i8] c"parent\00", align 1
@.str.4 = private unnamed_addr constant [6 x i8] c"child\00", align 1

; Function Attrs: null_pointer_is_valid sspstrong uwtable
define hidden void @tvb_add_to_chain(ptr noundef %0, ptr noundef %1) #0 {
  %3 = alloca ptr, align 8
  %4 = alloca ptr, align 8
  %5 = alloca ptr, align 8
  store ptr %0, ptr %3, align 8
  store ptr %1, ptr %4, align 8
  call void @llvm.lifetime.start.p0(i64 8, ptr %5) #16
  %6 = load ptr, ptr %3, align 8
  %7 = icmp ne ptr %6, null
  br i1 %7, label %8, label %9

8:                                                ; preds = %2
  br label %11

9:                                                ; preds = %2
  call void (ptr, ...) @proto_report_dissector_bug(ptr noundef @.str, ptr noundef @.str.1, i32 noundef 140, ptr noundef @.str.3) #18
  unreachable

10:                                               ; No predecessors!
  br label %11

11:                                               ; preds = %10, %8
  %12 = load ptr, ptr %4, align 8
  %13 = icmp ne ptr %12, null
  br i1 %13, label %14, label %15

14:                                               ; preds = %11
  br label %17

15:                                               ; preds = %11
  call void (ptr, ...) @proto_report_dissector_bug(ptr noundef @.str, ptr noundef @.str.1, i32 noundef 141, ptr noundef @.str.4) #18
  unreachable

16:                                               ; No predecessors!
  br label %17

17:                                               ; preds = %16, %14
  br label %18

18:                                               ; preds = %21, %17
  %19 = load ptr, ptr %4, align 8
  %20 = icmp ne ptr %19, null
  br i1 %20, label %21, label %34

21:                                               ; preds = %18
  %22 = load ptr, ptr %4, align 8
  store ptr %22, ptr %5, align 8
  %23 = load ptr, ptr %4, align 8
  %24 = getelementptr inbounds nuw %struct.tvbuff, ptr %23, i32 0, i32 0
  %25 = load ptr, ptr %24, align 8
  store ptr %25, ptr %4, align 8
  %26 = load ptr, ptr %3, align 8
  %27 = getelementptr inbounds nuw %struct.tvbuff, ptr %26, i32 0, i32 0
  %28 = load ptr, ptr %27, align 8
  %29 = load ptr, ptr %5, align 8
  %30 = getelementptr inbounds nuw %struct.tvbuff, ptr %29, i32 0, i32 0
  store ptr %28, ptr %30, align 8
  %31 = load ptr, ptr %5, align 8
  %32 = load ptr, ptr %3, align 8
  %33 = getelementptr inbounds nuw %struct.tvbuff, ptr %32, i32 0, i32 0
  store ptr %31, ptr %33, align 8
  br label %18, !llvm.loop !8

34:                                               ; preds = %18
  call void @llvm.lifetime.end.p0(i64 8, ptr %5) #16
  ret void
}