; Function Attrs: null_pointer_is_valid sspstrong uwtable
define hidden void @tvb_add_to_chain(ptr noundef captures(address_is_null) %0, ptr noundef %1) local_unnamed_addr #0 {
  %.not = icmp eq ptr %0, null
  br i1 %.not, label %3, label %4

3:                                                ; preds = %2
  tail call void (ptr, ...) @proto_report_dissector_bug(ptr noundef nonnull @.str, ptr noundef nonnull @.str.1, i32 noundef 140, ptr noundef nonnull @.str.3) #18
  unreachable

4:                                                ; preds = %2
  %.not11 = icmp eq ptr %1, null
  br i1 %.not11, label %5, label %.preheader.preheader

.preheader.preheader:                             ; preds = %4
  %.pre = load ptr, ptr %0, align 8
  br label %.preheader

5:                                                ; preds = %4
  tail call void (ptr, ...) @proto_report_dissector_bug(ptr noundef nonnull @.str, ptr noundef nonnull @.str.1, i32 noundef 141, ptr noundef nonnull @.str.4) #18
  unreachable

.preheader:                                       ; preds = %.preheader.preheader, %.preheader
  %6 = phi ptr [ %.013, %.preheader ], [ %.pre, %.preheader.preheader ]
  %.013 = phi ptr [ %7, %.preheader ], [ %1, %.preheader.preheader ]
  %7 = load ptr, ptr %.013, align 8
  store ptr %6, ptr %.013, align 8
  store ptr %.013, ptr %0, align 8
  %.not12 = icmp eq ptr %7, null
  br i1 %.not12, label %8, label %.preheader, !llvm.loop !8

8:                                                ; preds = %.preheader
  ret void
}